; Function Attrs: nounwind uwtable
define internal i32 @bp_double(ptr noundef readonly captures(none) %0, ptr noundef %1, ptr noundef %2, ptr readnone captures(none) %3) #0 {
  %5 = tail call double @PyFloat_AsDouble(ptr noundef %2) #7
  %6 = fcmp oeq double %5, -1.000000e+00
  br i1 %6, label %7, label %12

7:                                                ; preds = %4
  %8 = tail call ptr @PyErr_Occurred() #7
  %.not = icmp eq ptr %8, null
  br i1 %.not, label %12, label %9

9:                                                ; preds = %7
  %10 = getelementptr inbounds nuw i8, ptr %0, i64 24
  %11 = load ptr, ptr %10, align 8, !tbaa !16
  tail call void @PyErr_SetString(ptr noundef %11, ptr noundef nonnull @.str.56) #7
  br label %14

12:                                               ; preds = %7, %4
  %13 = tail call i32 @PyFloat_Pack8(double noundef %5, ptr noundef %1, i32 noundef 0) #7
  br label %14

14:                                               ; preds = %12, %9
  %.0 = phi i32 [ -1, %9 ], [ %13, %12 ]
  ret i32 %.0
}